target datalayout = "e-m:e-p270:32:32-p271:32:32-p272:64:64-i64:64-i128:128-f80:128-n8:16:32:64-S128"
target triple = "x86_64-pc-linux-gnu"

@.str = private unnamed_addr constant [105 x i8] c"Usage: hwloc-annotate [options] <input.xml> <output.xml> -- <location1> <location2> ... -- <annotation>\0A\00", align 1
@.str.1 = private unnamed_addr constant [82 x i8] c"Usage: hwloc-annotate [options] <input.xml> <output.xml> <location> <annotation>\0A\00", align 1
@.str.2 = private unnamed_addr constant [22 x i8] c"  <location> may be:\0A\00", align 1
@.str.3 = private unnamed_addr constant [50 x i8] c"    all, root, <type>:<logicalindex>, <type>:all\0A\00", align 1
@.str.4 = private unnamed_addr constant [24 x i8] c"  <annotation> may be:\0A\00", align 1
@.str.5 = private unnamed_addr constant [25 x i8] c"    info <name> <value>\0A\00", align 1
@.str.6 = private unnamed_addr constant [23 x i8] c"    subtype <subtype>\0A\00", align 1
@.str.7 = private unnamed_addr constant [33 x i8] c"    size <memory or cache size>\0A\00", align 1
@.str.8 = private unnamed_addr constant [17 x i8] c"    misc <name>\0A\00", align 1
@.str.9 = private unnamed_addr constant [36 x i8] c"    distances <filename> [<flags>]\0A\00", align 1
@.str.10 = private unnamed_addr constant [28 x i8] c"    memattr <name> <flags>\0A\00", align 1
@.str.11 = private unnamed_addr constant [40 x i8] c"    memattr <name> <initiator> <value>\0A\00", align 1
@.str.12 = private unnamed_addr constant [68 x i8] c"    cpukind <cpuset> <efficiency> <flags> [<infoname> <infovalue>]\0A\00", align 1
@.str.13 = private unnamed_addr constant [38 x i8] c"    distances-transform <name> links\0A\00", align 1
@.str.14 = private unnamed_addr constant [51 x i8] c"    distances-transform <name> merge-switch-ports\0A\00", align 1
@.str.15 = private unnamed_addr constant [51 x i8] c"    distances-transform <name> transitive-closure\0A\00", align 1
@.str.16 = private unnamed_addr constant [49 x i8] c"    distances-transform <name> remove-obj <obj>\0A\00", align 1
@.str.17 = private unnamed_addr constant [65 x i8] c"    distances-transform <name> replace-objs <oldtype> <newtype>\0A\00", align 1
@.str.18 = private unnamed_addr constant [10 x i8] c"    none\0A\00", align 1
@.str.19 = private unnamed_addr constant [10 x i8] c"Options:\0A\00", align 1
@.str.20 = private unnamed_addr constant [29 x i8] c"  --ci\09Clear existing infos\0A\00", align 1
@.str.21 = private unnamed_addr constant [82 x i8] c"  --ri\09Replace or remove existing infos with same name (annotation must be info)\0A\00", align 1
@.str.22 = private unnamed_addr constant [32 x i8] c"  --cu\09Clear existing userdata\0A\00", align 1
@.str.23 = private unnamed_addr constant [33 x i8] c"  --cd\09Clear existing distances\0A\00", align 1
@.str.24 = private unnamed_addr constant [37 x i8] c"  --version\09Report version and exit\0A\00", align 1
@.str.25 = private unnamed_addr constant [29 x i8] c"  -h --help\09Show this usage\0A\00", align 1

; Function Attrs: nounwind uwtable
define hidden void @usage(ptr noundef %0, ptr noundef %1) #0 {
  %3 = alloca ptr, align 8
  %4 = alloca ptr, align 8
  store ptr %0, ptr %3, align 8, !tbaa !4
  store ptr %1, ptr %4, align 8, !tbaa !9
  %5 = load ptr, ptr %4, align 8, !tbaa !9
  %6 = call i32 (ptr, ptr, ...) @fprintf(ptr noundef %5, ptr noundef @.str) #11
  %7 = load ptr, ptr %4, align 8, !tbaa !9
  %8 = call i32 (ptr, ptr, ...) @fprintf(ptr noundef %7, ptr noundef @.str.1) #11
  %9 = load ptr, ptr %4, align 8, !tbaa !9
  %10 = call i32 (ptr, ptr, ...) @fprintf(ptr noundef %9, ptr noundef @.str.2) #11
  %11 = load ptr, ptr %4, align 8, !tbaa !9
  %12 = call i32 (ptr, ptr, ...) @fprintf(ptr noundef %11, ptr noundef @.str.3) #11
  %13 = load ptr, ptr %4, align 8, !tbaa !9
  %14 = call i32 (ptr, ptr, ...) @fprintf(ptr noundef %13, ptr noundef @.str.4) #11
  %15 = load ptr, ptr %4, align 8, !tbaa !9
  %16 = call i32 (ptr, ptr, ...) @fprintf(ptr noundef %15, ptr noundef @.str.5) #11
  %17 = load ptr, ptr %4, align 8, !tbaa !9
  %18 = call i32 (ptr, ptr, ...) @fprintf(ptr noundef %17, ptr noundef @.str.6) #11
  %19 = load ptr, ptr %4, align 8, !tbaa !9
  %20 = call i32 (ptr, ptr, ...) @fprintf(ptr noundef %19, ptr noundef @.str.7) #11
  %21 = load ptr, ptr %4, align 8, !tbaa !9
  %22 = call i32 (ptr, ptr, ...) @fprintf(ptr noundef %21, ptr noundef @.str.8) #11
  %23 = load ptr, ptr %4, align 8, !tbaa !9
  %24 = call i32 (ptr, ptr, ...) @fprintf(ptr noundef %23, ptr noundef @.str.9) #11
  %25 = load ptr, ptr %4, align 8, !tbaa !9
  %26 = call i32 (ptr, ptr, ...) @fprintf(ptr noundef %25, ptr noundef @.str.10) #11
  %27 = load ptr, ptr %4, align 8, !tbaa !9
  %28 = call i32 (ptr, ptr, ...) @fprintf(ptr noundef %27, ptr noundef @.str.11) #11
  %29 = load ptr, ptr %4, align 8, !tbaa !9
  %30 = call i32 (ptr, ptr, ...) @fprintf(ptr noundef %29, ptr noundef @.str.12) #11
  %31 = load ptr, ptr %4, align 8, !tbaa !9
  %32 = call i32 (ptr, ptr, ...) @fprintf(ptr noundef %31, ptr noundef @.str.13) #11
  %33 = load ptr, ptr %4, align 8, !tbaa !9
  %34 = call i32 (ptr, ptr, ...) @fprintf(ptr noundef %33, ptr noundef @.str.14) #11
  %35 = load ptr, ptr %4, align 8, !tbaa !9
  %36 = call i32 (ptr, ptr, ...) @fprintf(ptr noundef %35, ptr noundef @.str.15) #11
  %37 = load ptr, ptr %4, align 8, !tbaa !9
  %38 = call i32 (ptr, ptr, ...) @fprintf(ptr noundef %37, ptr noundef @.str.16) #11
  %39 = load ptr, ptr %4, align 8, !tbaa !9
  %40 = call i32 (ptr, ptr, ...) @fprintf(ptr noundef %39, ptr noundef @.str.17) #11
  %41 = load ptr, ptr %4, align 8, !tbaa !9
  %42 = call i32 (ptr, ptr, ...) @fprintf(ptr noundef %41, ptr noundef @.str.18) #11
  %43 = load ptr, ptr %4, align 8, !tbaa !9
  %44 = call i32 (ptr, ptr, ...) @fprintf(ptr noundef %43, ptr noundef @.str.19) #11
  %45 = load ptr, ptr %4, align 8, !tbaa !9
  %46 = call i32 (ptr, ptr, ...) @fprintf(ptr noundef %45, ptr noundef @.str.20) #11
  %47 = load ptr, ptr %4, align 8, !tbaa !9
  %48 = call i32 (ptr, ptr, ...) @fprintf(ptr noundef %47, ptr noundef @.str.21) #11
  %49 = load ptr, ptr %4, align 8, !tbaa !9
  %50 = call i32 (ptr, ptr, ...) @fprintf(ptr noundef %49, ptr noundef @.str.22) #11
  %51 = load ptr, ptr %4, align 8, !tbaa !9
  %52 = call i32 (ptr, ptr, ...) @fprintf(ptr noundef %51, ptr noundef @.str.23) #11
  %53 = load ptr, ptr %4, align 8, !tbaa !9
  %54 = call i32 (ptr, ptr, ...) @fprintf(ptr noundef %53, ptr noundef @.str.24) #11
  %55 = load ptr, ptr %4, align 8, !tbaa !9
  %56 = call i32 (ptr, ptr, ...) @fprintf(ptr noundef %55, ptr noundef @.str.25) #11
  ret void
}