; Function Attrs: nofree nounwind uwtable
define hidden void @usage(ptr readnone captures(none) %0, ptr noundef captures(none) %1) local_unnamed_addr #0 {
  %3 = tail call i64 @fwrite(ptr nonnull @.str, i64 104, i64 1, ptr %1)
  %4 = tail call i64 @fwrite(ptr nonnull @.str.1, i64 81, i64 1, ptr %1)
  %5 = tail call i64 @fwrite(ptr nonnull @.str.2, i64 21, i64 1, ptr %1)
  %6 = tail call i64 @fwrite(ptr nonnull @.str.3, i64 49, i64 1, ptr %1)
  %7 = tail call i64 @fwrite(ptr nonnull @.str.4, i64 23, i64 1, ptr %1)
  %8 = tail call i64 @fwrite(ptr nonnull @.str.5, i64 24, i64 1, ptr %1)
  %9 = tail call i64 @fwrite(ptr nonnull @.str.6, i64 22, i64 1, ptr %1)
  %10 = tail call i64 @fwrite(ptr nonnull @.str.7, i64 32, i64 1, ptr %1)
  %11 = tail call i64 @fwrite(ptr nonnull @.str.8, i64 16, i64 1, ptr %1)
  %12 = tail call i64 @fwrite(ptr nonnull @.str.9, i64 35, i64 1, ptr %1)
  %13 = tail call i64 @fwrite(ptr nonnull @.str.10, i64 27, i64 1, ptr %1)
  %14 = tail call i64 @fwrite(ptr nonnull @.str.11, i64 39, i64 1, ptr %1)
  %15 = tail call i64 @fwrite(ptr nonnull @.str.12, i64 67, i64 1, ptr %1)
  %16 = tail call i64 @fwrite(ptr nonnull @.str.13, i64 37, i64 1, ptr %1)
  %17 = tail call i64 @fwrite(ptr nonnull @.str.14, i64 50, i64 1, ptr %1)
  %18 = tail call i64 @fwrite(ptr nonnull @.str.15, i64 50, i64 1, ptr %1)
  %19 = tail call i64 @fwrite(ptr nonnull @.str.16, i64 48, i64 1, ptr %1)
  %20 = tail call i64 @fwrite(ptr nonnull @.str.17, i64 64, i64 1, ptr %1)
  %21 = tail call i64 @fwrite(ptr nonnull @.str.18, i64 9, i64 1, ptr %1)
  %22 = tail call i64 @fwrite(ptr nonnull @.str.19, i64 9, i64 1, ptr %1)
  %23 = tail call i64 @fwrite(ptr nonnull @.str.20, i64 28, i64 1, ptr %1)
  %24 = tail call i64 @fwrite(ptr nonnull @.str.21, i64 81, i64 1, ptr %1)
  %25 = tail call i64 @fwrite(ptr nonnull @.str.22, i64 31, i64 1, ptr %1)
  %26 = tail call i64 @fwrite(ptr nonnull @.str.23, i64 32, i64 1, ptr %1)
  %27 = tail call i64 @fwrite(ptr nonnull @.str.24, i64 36, i64 1, ptr %1)
  %28 = tail call i64 @fwrite(ptr nonnull @.str.25, i64 28, i64 1, ptr %1)
  ret void
}